target datalayout = "e-m:e-p270:32:32-p271:32:32-p272:64:64-i64:64-i128:128-f80:128-n8:16:32:64-S128"
target triple = "x86_64-pc-linux-gnu"

%struct.radix_process_st = type { i64, i64, i64, ptr, ptr, ptr, %struct.OSSL_TIME, ptr, i32, i32 }
%struct.OSSL_TIME = type { i64 }
%struct.radix_thread_st = type { ptr, ptr, ptr, i64, i64, [8 x ptr], [8 x ptr], ptr, ptr, ptr, i32, i32, i64 }

@.str.74 = private unnamed_addr constant [38 x i8] c"../openssl/test/radix/quic_bindings.c\00", align 1
@.str.140 = private unnamed_addr constant [3 x i8] c"rp\00", align 1
@.str.141 = private unnamed_addr constant [33 x i8] c"rt = OPENSSL_zalloc(sizeof(*rt))\00", align 1
@.str.142 = private unnamed_addr constant [32 x i8] c"rt->m = ossl_crypto_mutex_new()\00", align 1
@.str.143 = private unnamed_addr constant [38 x i8] c"sk_RADIX_THREAD_push(rp->threads, rt)\00", align 1

; Function Attrs: inlinehint nounwind uwtable
define internal i32 @sk_RADIX_THREAD_push(ptr noundef %0, ptr noundef %1) #5 {
  %3 = alloca ptr, align 8
  %4 = alloca ptr, align 8
  store ptr %0, ptr %3, align 8, !tbaa !103
  store ptr %1, ptr %4, align 8, !tbaa !20
  %5 = load ptr, ptr %3, align 8, !tbaa !103
  %6 = load ptr, ptr %4, align 8, !tbaa !20
  %7 = call i32 @OPENSSL_sk_push(ptr noundef %5, ptr noundef %6)
  ret i32 %7
}

; Function Attrs: nounwind uwtable
define internal ptr @RADIX_THREAD_new(ptr noundef %0) #0 {
  %2 = alloca ptr, align 8
  %3 = alloca ptr, align 8
  %4 = alloca ptr, align 8
  %5 = alloca i32, align 4
  store ptr %0, ptr %3, align 8, !tbaa !83
  call void @llvm.lifetime.start.p0(i64 8, ptr %4) #9
  %6 = load ptr, ptr %3, align 8, !tbaa !83
  %7 = call i32 @test_ptr(ptr noundef @.str.74, i32 noundef 496, ptr noundef @.str.140, ptr noundef %6)
  %8 = icmp ne i32 %7, 0
  br i1 %8, label %9, label %13

9:                                                ; preds = %1
  %10 = call noalias ptr @CRYPTO_zalloc(i64 noundef 208, ptr noundef @.str.74, i32 noundef 497)
  store ptr %10, ptr %4, align 8, !tbaa !20
  %11 = call i32 @test_ptr(ptr noundef @.str.74, i32 noundef 497, ptr noundef @.str.141, ptr noundef %10)
  %12 = icmp ne i32 %11, 0
  br i1 %12, label %14, label %13

13:                                               ; preds = %9, %1
  store ptr null, ptr %2, align 8
  store i32 1, ptr %5, align 4
  br label %45

14:                                               ; preds = %9
  %15 = load ptr, ptr %3, align 8, !tbaa !83
  %16 = load ptr, ptr %4, align 8, !tbaa !20
  %17 = getelementptr inbounds nuw %struct.radix_thread_st, ptr %16, i32 0, i32 0
  store ptr %15, ptr %17, align 8, !tbaa !97
  %18 = call ptr @ossl_crypto_mutex_new()
  %19 = load ptr, ptr %4, align 8, !tbaa !20
  %20 = getelementptr inbounds nuw %struct.radix_thread_st, ptr %19, i32 0, i32 9
  store ptr %18, ptr %20, align 8, !tbaa !94
  %21 = call i32 @test_ptr(ptr noundef @.str.74, i32 noundef 503, ptr noundef @.str.142, ptr noundef %18)
  %22 = icmp ne i32 %21, 0
  br i1 %22, label %25, label %23

23:                                               ; preds = %14
  %24 = load ptr, ptr %4, align 8, !tbaa !20
  call void @CRYPTO_free(ptr noundef %24, ptr noundef @.str.74, i32 noundef 504)
  store ptr null, ptr %2, align 8
  store i32 1, ptr %5, align 4
  br label %45

25:                                               ; preds = %14
  %26 = load ptr, ptr %3, align 8, !tbaa !83
  %27 = getelementptr inbounds nuw %struct.radix_process_st, ptr %26, i32 0, i32 3
  %28 = load ptr, ptr %27, align 8, !tbaa !98
  %29 = load ptr, ptr %4, align 8, !tbaa !20
  %30 = call i32 @sk_RADIX_THREAD_push(ptr noundef %28, ptr noundef %29)
  %31 = icmp ne i32 %30, 0
  %32 = zext i1 %31 to i32
  %33 = call i32 @test_true(ptr noundef @.str.74, i32 noundef 509, ptr noundef @.str.143, i32 noundef %32)
  %34 = icmp ne i32 %33, 0
  br i1 %34, label %37, label %35

35:                                               ; preds = %25
  %36 = load ptr, ptr %4, align 8, !tbaa !20
  call void @CRYPTO_free(ptr noundef %36, ptr noundef @.str.74, i32 noundef 510)
  store ptr null, ptr %2, align 8
  store i32 1, ptr %5, align 4
  br label %45

37:                                               ; preds = %25
  %38 = load ptr, ptr %3, align 8, !tbaa !83
  %39 = getelementptr inbounds nuw %struct.radix_process_st, ptr %38, i32 0, i32 2
  %40 = load i64, ptr %39, align 8, !tbaa !99
  %41 = add i64 %40, 1
  store i64 %41, ptr %39, align 8, !tbaa !99
  %42 = load ptr, ptr %4, align 8, !tbaa !20
  %43 = getelementptr inbounds nuw %struct.radix_thread_st, ptr %42, i32 0, i32 4
  store i64 %40, ptr %43, align 8, !tbaa !100
  %44 = load ptr, ptr %4, align 8, !tbaa !20
  store ptr %44, ptr %2, align 8
  store i32 1, ptr %5, align 4
  br label %45

45:                                               ; preds = %37, %35, %23, %13
  call void @llvm.lifetime.end.p0(i64 8, ptr %4) #9
  %46 = load ptr, ptr %2, align 8
  ret ptr %46
}