; Function Attrs: nounwind uwtable
define internal fastcc noundef ptr @RADIX_THREAD_new() unnamed_addr #1 {
  %1 = tail call i32 @test_ptr(ptr noundef nonnull @.str.74, i32 noundef 496, ptr noundef nonnull @.str.140, ptr noundef nonnull @radix_process) #12
  %.not = icmp eq i32 %1, 0
  br i1 %.not, label %21, label %2

2:                                                ; preds = %0
  %3 = tail call noalias ptr @CRYPTO_zalloc(i64 noundef 208, ptr noundef nonnull @.str.74, i32 noundef 497) #12
  %4 = tail call i32 @test_ptr(ptr noundef nonnull @.str.74, i32 noundef 497, ptr noundef nonnull @.str.141, ptr noundef %3) #12
  %.not12 = icmp eq i32 %4, 0
  br i1 %.not12, label %21, label %5

5:                                                ; preds = %2
  store ptr @radix_process, ptr %3, align 8, !tbaa !115
  %6 = tail call ptr @ossl_crypto_mutex_new() #12
  %7 = getelementptr inbounds nuw i8, ptr %3, i64 184
  store ptr %6, ptr %7, align 8, !tbaa !38
  %8 = tail call i32 @test_ptr(ptr noundef nonnull @.str.74, i32 noundef 503, ptr noundef nonnull @.str.142, ptr noundef %6) #12
  %.not13 = icmp eq i32 %8, 0
  br i1 %.not13, label %9, label %10

9:                                                ; preds = %5
  tail call void @CRYPTO_free(ptr noundef nonnull %3, ptr noundef nonnull @.str.74, i32 noundef 504) #12
  br label %21

10:                                               ; preds = %5
  %11 = load ptr, ptr getelementptr inbounds nuw (i8, ptr @radix_process, i64 24), align 8, !tbaa !19
  %12 = tail call i32 @OPENSSL_sk_push(ptr noundef %11, ptr noundef nonnull %3) #12
  %13 = icmp ne i32 %12, 0
  %14 = zext i1 %13 to i32
  %15 = tail call i32 @test_true(ptr noundef nonnull @.str.74, i32 noundef 509, ptr noundef nonnull @.str.143, i32 noundef %14) #12
  %.not14 = icmp eq i32 %15, 0
  br i1 %.not14, label %16, label %17

16:                                               ; preds = %10
  tail call void @CRYPTO_free(ptr noundef nonnull %3, ptr noundef nonnull @.str.74, i32 noundef 510) #12
  br label %21

17:                                               ; preds = %10
  %18 = load i64, ptr getelementptr inbounds nuw (i8, ptr @radix_process, i64 16), align 8, !tbaa !52
  %19 = add i64 %18, 1
  store i64 %19, ptr getelementptr inbounds nuw (i8, ptr @radix_process, i64 16), align 8, !tbaa !52
  %20 = getelementptr inbounds nuw i8, ptr %3, i64 32
  store i64 %18, ptr %20, align 8, !tbaa !41
  br label %21

21:                                               ; preds = %0, %2, %17, %16, %9
  %.0 = phi ptr [ %3, %17 ], [ null, %16 ], [ null, %9 ], [ null, %2 ], [ null, %0 ]
  ret ptr %.0
}